-----BEGIN RSA PRIVATE KEY-----
Proc-Type: 4,ENCRYPTED
DEK-Info: AES-128-CBC,7E291994B56819CA6FCD32BEED9A8C7B

y7MQv5MNGy4EkdHrHCiN5rJyvYzyD8vAd5O8WPREMb59vLZOGGvdltummjhUzfR2
D/ztibU5D26/YGICcmZseartKlpRiS6dq8t7Nb15AxYc6QJJWtDbEZoNNPwvVRI1
CbXdEOE3hPKSeQB2CK+q/dsVTT185BZaWXtAyCPdy5+uRG57spUkvE29nHSQhIU0
/x9dPS2L5amC0euj1J/hQQ6WRQQ1gtyClMVDZQUJdUpcyQQssSrAduFtN9ad2ko2
YV0BaRQ3jhm2KHvHpniUnQWNff4ClyKxIpqPrYlh5sv1kLsovmV7YJ18PTL7myOY
GpXTmhYMD46rIqgpu7YfQkn2tA93FQRuWqzsMhv95fRHgWCzQxdBD2flGbuWMaF0
ATWX9bQJntFJe4aZNGDjVRL/n3maWlpvjLrauh72O+zBvo+VtPtnc27E0HvfrvZl
lwwPJY87CEY97JtDbDGt4VjQgV3/dZMjcq45hMm/jj+3hluVwLS6U64047Um+UIy
hHpNRlpnvi7QbfpCbffO+e6Uy+xzYzXewkrz+xqV5mhqUDkFOdxCPHAfXP/2O/76
abaq7xLKq9or4pA5NV6GuNipLzUUptADmBZlwlxAMBGPzg9AgwpHQvtAnNiXXABZ
rTAvA30zFcar90ZxlIs6U32AFqm8PuEdVg0z6Mc6Xa/roUOPCa4fxehlOqKNEpVm
DXiJj7u2i1FsSWDzL3tDbftYxpcOJck0KePhK5t3nkU2No9JR85GEj+TVeYwFgvA
1VNKxyJY00Jn4wqPS6lXbYU350+B6XQnHVbtDGjrGxVgB8672dPE2x7CwsQqwnNa
-----END RSA PRIVATE KEY-----
Certificate:
    Data:
        Version: 3 (0x2)
        Serial Number: 4096 (0x1000)
    Signature Algorithm: sha256WithRSAEncryption
        Issuer: C=CN, ST=Syracuse, L=Syracuse, O=none, OU=none, CN=Xiaohan/emailAddress=xwang186@syr.edu
        Validity
            Not Before: Apr 16 02:35:05 2018 GMT
            Not After : Apr 16 02:35:05 2019 GMT
        Subject: C=CN, ST=Syracuse, O=none, OU=none, CN=SEEDPKILab2018.com/emailAddress=xwang186@syr.edu
        Subject Public Key Info:
            Public Key Algorithm: rsaEncryption
                Public-Key: (1024 bit)
                Modulus:
                    00:c0:00:27:2d:f5:a2:ce:03:06:58:c2:04:0d:72:
                    ce:1e:cc:b2:4d:79:37:11:2c:fe:97:08:51:6c:57:
                    a0:e9:61:bc:72:7f:f8:8a:ed:79:6b:cd:8c:c9:4b:
                    01:ce:f0:5a:93:0c:d6:a2:f3:fe:e4:ec:db:dc:28:
                    d4:ec:04:00:3b:ba:03:b1:4e:3d:1c:93:a9:29:53:
                    e1:bc:c5:b5:21:60:bd:18:3c:69:95:1c:7a:65:15:
                    98:98:eb:f7:4f:e7:cf:42:ba:b4:10:7f:81:ea:e3:
                    93:90:2b:2d:69:c7:d0:ed:6e:04:39:ca:4a:7e:8f:
                    2c:38:12:b5:ec:df:fa:f7:6d
                Exponent: 65537 (0x10001)
        X509v3 extensions:
            X509v3 Basic Constraints: 
                CA:FALSE
            Netscape Comment: 
                OpenSSL Generated Certificate
            X509v3 Subject Key Identifier: 
                96:F5:E1:7B:EA:E8:47:94:59:BA:1D:68:46:5A:E5:BE:B9:CC:C6:55
            X509v3 Authority Key Identifier: 
                keyid:8F:8E:2E:23:46:38:AD:08:5B:8E:BB:61:A2:6D:16:3C:F6:F5:D3:20

    Signature Algorithm: sha256WithRSAEncryption
         1c:2f:0e:15:1b:af:44:57:fe:59:c0:9b:c0:29:da:a6:79:5e:
         97:b7:de:75:d2:f6:b7:1c:de:7d:3b:6a:b1:56:e7:56:a9:96:
         bf:73:63:90:0a:96:80:80:19:d4:fa:cf:c6:98:91:90:15:cb:
         13:2f:b4:67:7c:48:54:eb:6d:f9:1f:60:70:1f:fd:f0:e0:8d:
         24:fd:ea:68:54:65:5f:33:0d:e2:ff:c6:32:64:27:35:06:1b:
         d1:9f:77:1c:96:bf:a6:9a:2a:39:82:56:33:d0:1e:f6:fd:79:
         6f:cf:b2:9b:5d:0c:33:e4:0b:8e:34:98:37:21:6c:25:f2:69:
         3b:17:1e:51:40:39:3d:38:c6:95:75:ce:19:ec:01:0a:b4:ad:
         57:27:2b:d7:60:1d:13:20:87:a0:a5:1a:07:2e:92:70:f7:db:
         af:eb:80:9d:c6:ac:e6:8b:b5:e6:ca:c4:10:00:69:d1:99:00:
         ad:63:fa:09:16:13:c6:6d:ed:5f:1e:73:4b:41:5a:6d:e1:ea:
         74:32:4c:c6:a2:d2:92:73:fe:3e:eb:cf:58:6e:51:7e:cd:93:
         1b:7c:c2:e9:ba:a0:30:ed:d9:62:2d:ea:14:31:45:f2:8c:43:
         af:1d:49:14:b4:ab:81:38:eb:78:63:2c:6b:d7:8f:ac:58:50:
         68:ae:ec:a9
-----BEGIN CERTIFICATE-----
MIIDdDCCAlygAwIBAgICEAAwDQYJKoZIhvcNAQELBQAwgYQxCzAJBgNVBAYTAkNO
MREwDwYDVQQIDAhTeXJhY3VzZTERMA8GA1UEBwwIU3lyYWN1c2UxDTALBgNVBAoM
BG5vbmUxDTALBgNVBAsMBG5vbmUxEDAOBgNVBAMMB1hpYW9oYW4xHzAdBgkqhkiG
9w0BCQEWEHh3YW5nMTg2QHN5ci5lZHUwHhcNMTgwNDE2MDIzNTA1WhcNMTkwNDE2
MDIzNTA1WjB8MQswCQYDVQQGEwJDTjERMA8GA1UECAwIU3lyYWN1c2UxDTALBgNV
BAoMBG5vbmUxDTALBgNVBAsMBG5vbmUxGzAZBgNVBAMMElNFRURQS0lMYWIyMDE4
LmNvbTEfMB0GCSqGSIb3DQEJARYQeHdhbmcxODZAc3lyLmVkdTCBnzANBgkqhkiG
9w0BAQEFAAOBjQAwgYkCgYEAwAAnLfWizgMGWMIEDXLOHsyyTXk3ESz+lwhRbFeg
6WG8cn/4iu15a82MyUsBzvBakwzWovP+5Ozb3CjU7AQAO7oDsU49HJOpKVPhvMW1
IWC9GDxplRx6ZRWYmOv3T+fPQrq0EH+B6uOTkCstacfQ7W4EOcpKfo8sOBK17N/6
920CAwEAAaN7MHkwCQYDVR0TBAIwADAsBglghkgBhvhCAQ0EHxYdT3BlblNTTCBH
ZW5lcmF0ZWQgQ2VydGlmaWNhdGUwHQYDVR0OBBYEFJb14Xvq6EeUWbodaEZa5b65
zMZVMB8GA1UdIwQYMBaAFI+OLiNGOK0IW467YaJtFjz29dMgMA0GCSqGSIb3DQEB
CwUAA4IBAQAcLw4VG69EV/5ZwJvAKdqmeV6Xt9510va3HN59O2qxVudWqZa/c2OQ
CpaAgBnU+s/GmJGQFcsTL7RnfEhU6235H2BwH/3w4I0k/epoVGVfMw3i/8YyZCc1
BhvRn3cclr+mmio5glYz0B72/Xlvz7KbXQwz5AuONJg3IWwl8mk7Fx5RQDk9OMaV
dc4Z7AEKtK1XJyvXYB0TIIegpRoHLpJw99uv64Cdxqzmi7XmysQQAGnRmQCtY/oJ
FhPGbe1fHnNLQVpt4ep0MkzGotKSc/4+689YblF+zZMbfMLpuqAw7dliLeoUMUXy
jEOvHUkUtKuBOOt4Yyxr14+sWFBoruyp
-----END CERTIFICATE-----
